target datalayout = "e-m:e-p270:32:32-p271:32:32-p272:64:64-i64:64-i128:128-f80:128-n8:16:32:64-S128"
target triple = "x86_64-unknown-linux-gnu"

%struct.xa_state = type { ptr, i64, i8, i8, i8, i8, ptr, ptr, ptr, ptr }

; Function Attrs: fn_ret_thunk_extern nounwind null_pointer_is_valid
define dso_local void @xas_init_marks(ptr nocapture noundef readonly %0) #2 align 16 {
  %2 = getelementptr inbounds i8, ptr %0, i64 24
  %3 = getelementptr inbounds i8, ptr %0, i64 18
  %4 = getelementptr inbounds i8, ptr %0, i64 24
  %5 = getelementptr inbounds i8, ptr %0, i64 18
  br label %6

6:                                                ; preds = %80, %1
  %7 = phi i64 [ %82, %80 ], [ 0, %1 ]
  %8 = load ptr, ptr %0, align 8
  %9 = getelementptr inbounds i8, ptr %8, i64 4
  %10 = load i32, ptr %9, align 4
  %11 = and i32 %10, 4
  %12 = icmp ne i32 %11, 0
  %13 = icmp eq i64 %7, 0
  %14 = select i1 %12, i1 %13, i1 false
  br i1 %14, label %15, label %44

15:                                               ; preds = %6
  %16 = load ptr, ptr %4, align 8
  %17 = ptrtoint ptr %16 to i64
  %18 = and i64 %17, 3
  %19 = icmp eq i64 %18, 0
  br i1 %19, label %20, label %80

20:                                               ; preds = %15
  %21 = icmp eq ptr %16, null
  br i1 %21, label %36, label %22

22:                                               ; preds = %31, %20
  %23 = phi ptr [ %32, %31 ], [ %5, %20 ]
  %24 = phi ptr [ %34, %31 ], [ %16, %20 ]
  %25 = load i8, ptr %23, align 1
  %26 = zext i8 %25 to i64
  %27 = getelementptr inbounds i8, ptr %24, i64 552
  %28 = tail call i8 asm " btsq  $2,$1\0A\09/* output condition code c*/\0A", "={@ccc},*m,Ir,~{memory},~{dirflag},~{fpsr},~{flags}"(ptr elementtype(i64) %27, i64 %26) #7, !srcloc !12
  %29 = icmp ult i8 %28, 2
  tail call void @llvm.assume(i1 %29)
  %30 = icmp eq i8 %28, 0
  br i1 %30, label %31, label %80

31:                                               ; preds = %22
  %32 = getelementptr inbounds i8, ptr %24, i64 1
  %33 = getelementptr inbounds i8, ptr %24, i64 8
  %34 = load ptr, ptr %33, align 8
  %35 = icmp eq ptr %34, null
  br i1 %35, label %36, label %22, !llvm.loop !26

36:                                               ; preds = %31, %20
  %37 = load ptr, ptr %0, align 8
  %38 = getelementptr inbounds i8, ptr %37, i64 4
  %39 = load i32, ptr %38, align 4
  %40 = and i32 %39, 67108864
  %41 = icmp eq i32 %40, 0
  br i1 %41, label %42, label %80

42:                                               ; preds = %36
  %43 = or disjoint i32 %39, 67108864
  store i32 %43, ptr %38, align 4
  br label %80

44:                                               ; preds = %6
  %45 = load ptr, ptr %2, align 8
  %46 = ptrtoint ptr %45 to i64
  %47 = and i64 %46, 3
  %48 = icmp eq i64 %47, 0
  br i1 %48, label %49, label %80

49:                                               ; preds = %44
  %50 = icmp eq ptr %45, null
  br i1 %50, label %69, label %51

51:                                               ; preds = %64, %49
  %52 = phi ptr [ %65, %64 ], [ %3, %49 ]
  %53 = phi ptr [ %67, %64 ], [ %45, %49 ]
  %54 = load i8, ptr %52, align 1
  %55 = zext i8 %54 to i64
  %56 = getelementptr inbounds i8, ptr %53, i64 552
  %57 = getelementptr [3 x [1 x i64]], ptr %56, i64 0, i64 %7
  %58 = tail call i8 asm sideeffect " btrq  $2,$1\0A\09/* output condition code c*/\0A", "={@ccc},*m,Ir,~{memory},~{dirflag},~{fpsr},~{flags}"(ptr elementtype(i64) %57, i64 %55) #7, !srcloc !11
  %59 = icmp ult i8 %58, 2
  tail call void @llvm.assume(i1 %59)
  %60 = icmp eq i8 %58, 0
  br i1 %60, label %80, label %61

61:                                               ; preds = %51
  %62 = load i64, ptr %57, align 8
  %63 = icmp eq i64 %62, 0
  br i1 %63, label %64, label %80

64:                                               ; preds = %61
  %65 = getelementptr inbounds i8, ptr %53, i64 1
  %66 = getelementptr inbounds i8, ptr %53, i64 8
  %67 = load ptr, ptr %66, align 8
  %68 = icmp eq ptr %67, null
  br i1 %68, label %69, label %51, !llvm.loop !27

69:                                               ; preds = %64, %49
  %70 = load ptr, ptr %0, align 8
  %71 = getelementptr inbounds i8, ptr %70, i64 4
  %72 = load i32, ptr %71, align 4
  %73 = trunc i64 %7 to i32
  %74 = shl i32 67108864, %73
  %75 = and i32 %72, %74
  %76 = icmp eq i32 %75, 0
  br i1 %76, label %80, label %77

77:                                               ; preds = %69
  %78 = xor i32 %74, -1
  %79 = and i32 %72, %78
  store i32 %79, ptr %71, align 4
  br label %80

80:                                               ; preds = %77, %69, %61, %51, %44, %42, %36, %22, %15
  %81 = icmp eq i64 %7, 2
  %82 = add nuw nsw i64 %7, 1
  br i1 %81, label %83, label %6, !llvm.loop !28

83:                                               ; preds = %80
  ret void
}

; Function Attrs: fn_ret_thunk_extern nounwind null_pointer_is_valid
define dso_local void @xa_destroy(ptr noundef %0) #2 align 16 {
  %2 = alloca %struct.xa_state, align 8
  call void @llvm.lifetime.start.p0(i64 56, ptr nonnull %2) #7
  call void @llvm.memset.p0.i64(ptr noundef nonnull align 8 dereferenceable(56) %2, i8 0, i64 56, i1 false), !annotation !54
  store ptr %0, ptr %2, align 8
  %3 = getelementptr inbounds i8, ptr %2, i64 8
  %4 = getelementptr inbounds i8, ptr %2, i64 24
  call void @llvm.memset.p0.i64(ptr noundef align 8 dereferenceable(12) %3, i8 0, i64 12, i1 false)
  store ptr inttoptr (i64 3 to ptr), ptr %4, align 8
  %5 = getelementptr inbounds i8, ptr %2, i64 40
  call void @llvm.memset.p0.i64(ptr noundef align 8 dereferenceable(32) %4, i8 0, i64 32, i1 false)
  %6 = tail call i64 @_raw_spin_lock_irqsave(ptr noundef %0) #7
  %7 = getelementptr inbounds i8, ptr %0, i64 8
  %8 = load ptr, ptr %7, align 8
  store volatile ptr null, ptr %7, align 8
  call void @xas_init_marks(ptr noundef nonnull %2)
  %9 = getelementptr inbounds i8, ptr %0, i64 4
  %10 = load i32, ptr %9, align 4
  %11 = and i32 %10, 67108872
  %12 = icmp eq i32 %11, 67108872
  br i1 %12, label %13, label %15

13:                                               ; preds = %1
  %14 = and i32 %10, -67108865
  store i32 %14, ptr %9, align 4
  br label %15

15:                                               ; preds = %13, %1
  %16 = ptrtoint ptr %8 to i64
  %17 = and i64 %16, 3
  %18 = icmp eq i64 %17, 2
  %19 = icmp ugt ptr %8, inttoptr (i64 4096 to ptr)
  %20 = and i1 %19, %18
  br i1 %20, label %21, label %73

21:                                               ; preds = %15
  %22 = add nsw i64 %16, -2
  %23 = inttoptr i64 %22 to ptr
  br label %24

24:                                               ; preds = %72, %21
  %25 = phi i32 [ 0, %21 ], [ %69, %72 ]
  %26 = phi ptr [ %23, %21 ], [ %70, %72 ]
  %27 = getelementptr inbounds i8, ptr %26, i64 40
  %28 = zext i32 %25 to i64
  %29 = getelementptr [64 x ptr], ptr %27, i64 0, i64 %28
  %30 = load ptr, ptr %29, align 8
  %31 = load i8, ptr %26, align 8
  %32 = icmp eq i8 %31, 0
  br i1 %32, label %42, label %33

33:                                               ; preds = %24
  %34 = ptrtoint ptr %30 to i64
  %35 = and i64 %34, 3
  %36 = icmp eq i64 %35, 2
  %37 = icmp ugt ptr %30, inttoptr (i64 4096 to ptr)
  %38 = and i1 %37, %36
  br i1 %38, label %39, label %42

39:                                               ; preds = %33
  %40 = add nsw i64 %34, -2
  %41 = inttoptr i64 %40 to ptr
  br label %68, !llvm.loop !22

42:                                               ; preds = %33, %24
  %43 = icmp eq ptr %30, null
  br i1 %43, label %45, label %44

44:                                               ; preds = %42
  store volatile ptr inttoptr (i64 1026 to ptr), ptr %29, align 8
  br label %45

45:                                               ; preds = %44, %42
  %46 = add i32 %25, 1
  br label %47

47:                                               ; preds = %63, %45
  %48 = phi i32 [ %46, %45 ], [ %57, %63 ]
  %49 = phi ptr [ %26, %45 ], [ %67, %63 ]
  %50 = icmp eq i32 %48, 64
  br i1 %50, label %51, label %68

51:                                               ; preds = %47
  %52 = getelementptr inbounds i8, ptr %49, i64 8
  %53 = load ptr, ptr %52, align 8
  %54 = getelementptr inbounds i8, ptr %49, i64 1
  %55 = load i8, ptr %54, align 1
  %56 = zext i8 %55 to i32
  %57 = add nuw nsw i32 %56, 1
  %58 = getelementptr inbounds i8, ptr %49, i64 2
  store i8 0, ptr %58, align 2
  %59 = getelementptr inbounds i8, ptr %49, i64 3
  store i8 0, ptr %59, align 1
  %60 = load ptr, ptr %5, align 8
  %61 = icmp eq ptr %60, null
  br i1 %61, label %63, label %62

62:                                               ; preds = %51
  tail call void %60(ptr noundef %49) #7
  br label %63

63:                                               ; preds = %62, %51
  %64 = getelementptr inbounds i8, ptr %49, i64 16
  store ptr inttoptr (i64 1 to ptr), ptr %64, align 8
  %65 = getelementptr inbounds i8, ptr %49, i64 24
  tail call void @call_rcu(ptr noundef %65, ptr noundef nonnull @radix_tree_node_rcu_free) #7
  %66 = icmp eq ptr %49, %23
  %67 = select i1 %66, ptr %49, ptr %53
  br i1 %66, label %68, label %47, !llvm.loop !23

68:                                               ; preds = %63, %47, %39
  %69 = phi i32 [ 0, %39 ], [ %57, %63 ], [ %48, %47 ]
  %70 = phi ptr [ %41, %39 ], [ %67, %63 ], [ %49, %47 ]
  %71 = phi i32 [ 3, %39 ], [ 1, %63 ], [ 0, %47 ]
  switch i32 %71, label %73 [
    i32 0, label %72
    i32 3, label %72
  ]

72:                                               ; preds = %68, %68
  br label %24, !llvm.loop !22

73:                                               ; preds = %68, %15
  %74 = load ptr, ptr %2, align 8
  tail call void @_raw_spin_unlock_irqrestore(ptr noundef %74, i64 noundef %6) #7
  call void @llvm.lifetime.end.p0(i64 56, ptr nonnull %2) #7
  ret void
}