; Function Attrs: fn_ret_thunk_extern nounwind null_pointer_is_valid
define dso_local void @xa_destroy(ptr noundef %0) #2 align 16 {
  %2 = tail call i64 @_raw_spin_lock_irqsave(ptr noundef %0) #8
  %3 = getelementptr inbounds i8, ptr %0, i64 8
  %4 = load ptr, ptr %3, align 8
  store volatile ptr null, ptr %3, align 8
  %5 = getelementptr inbounds i8, ptr %0, i64 4
  %.promoted = load i32, ptr %5, align 4
  br label %6

6:                                                ; preds = %.loopexit.i, %1
  %7 = phi i32 [ %24, %.loopexit.i ], [ %.promoted, %1 ]
  %8 = phi i64 [ %26, %.loopexit.i ], [ 0, %1 ]
  %9 = and i32 %7, 4
  %10 = icmp ne i32 %9, 0
  %11 = icmp eq i64 %8, 0
  %12 = select i1 %10, i1 %11, i1 false
  br i1 %12, label %.loopexit4.i, label %.loopexit7.i

.loopexit4.i:                                     ; preds = %6
  %13 = and i32 %7, 67108864
  %14 = icmp eq i32 %13, 0
  br i1 %14, label %15, label %.loopexit.i

15:                                               ; preds = %.loopexit4.i
  %16 = or disjoint i32 %7, 67108864
  br label %.loopexit.i.sink.split

.loopexit7.i:                                     ; preds = %6
  %17 = trunc i64 %8 to i32
  %18 = shl i32 67108864, %17
  %19 = and i32 %18, %7
  %20 = icmp eq i32 %19, 0
  br i1 %20, label %.loopexit.i, label %21

21:                                               ; preds = %.loopexit7.i
  %22 = xor i32 %18, -1
  %23 = and i32 %7, %22
  br label %.loopexit.i.sink.split

.loopexit.i.sink.split:                           ; preds = %15, %21
  %.sink = phi i32 [ %23, %21 ], [ %16, %15 ]
  store i32 %.sink, ptr %5, align 4
  br label %.loopexit.i

.loopexit.i:                                      ; preds = %.loopexit.i.sink.split, %.loopexit7.i, %.loopexit4.i
  %24 = phi i32 [ %7, %.loopexit7.i ], [ %7, %.loopexit4.i ], [ %.sink, %.loopexit.i.sink.split ]
  %25 = icmp eq i64 %8, 2
  %26 = add nuw nsw i64 %8, 1
  br i1 %25, label %xas_init_marks.exit, label %6, !llvm.loop !23

xas_init_marks.exit:                              ; preds = %.loopexit.i
  %27 = and i32 %24, 67108872
  %28 = icmp eq i32 %27, 67108872
  br i1 %28, label %29, label %31

29:                                               ; preds = %xas_init_marks.exit
  %30 = and i32 %24, -67108865
  store i32 %30, ptr %5, align 4
  br label %31

31:                                               ; preds = %29, %xas_init_marks.exit
  %32 = ptrtoint ptr %4 to i64
  %33 = and i64 %32, 3
  %34 = icmp eq i64 %33, 2
  %35 = icmp ugt ptr %4, inttoptr (i64 4096 to ptr)
  %36 = and i1 %35, %34
  br i1 %36, label %37, label %.loopexit9

37:                                               ; preds = %31
  %38 = add nsw i64 %32, -2
  %39 = inttoptr i64 %38 to ptr
  br label %40

40:                                               ; preds = %.loopexit, %37
  %41 = phi i32 [ 0, %37 ], [ %.ph, %.loopexit ]
  %42 = phi ptr [ %39, %37 ], [ %.ph7, %.loopexit ]
  %43 = getelementptr inbounds i8, ptr %42, i64 40
  %44 = zext i32 %41 to i64
  %45 = getelementptr [64 x ptr], ptr %43, i64 0, i64 %44
  %46 = load ptr, ptr %45, align 8
  %47 = load i8, ptr %42, align 8
  %48 = icmp eq i8 %47, 0
  br i1 %48, label %58, label %49

49:                                               ; preds = %40
  %50 = ptrtoint ptr %46 to i64
  %51 = and i64 %50, 3
  %52 = icmp eq i64 %51, 2
  %53 = icmp ugt ptr %46, inttoptr (i64 4096 to ptr)
  %54 = and i1 %53, %52
  br i1 %54, label %55, label %58

55:                                               ; preds = %49
  %56 = add nsw i64 %50, -2
  %57 = inttoptr i64 %56 to ptr
  br label %.loopexit, !llvm.loop !25

58:                                               ; preds = %49, %40
  %59 = icmp eq ptr %46, null
  br i1 %59, label %.preheader, label %60

60:                                               ; preds = %58
  store volatile ptr inttoptr (i64 1026 to ptr), ptr %45, align 8
  br label %.preheader

.preheader:                                       ; preds = %60, %58
  br label %61

61:                                               ; preds = %.preheader, %65
  %.in = phi i32 [ %70, %65 ], [ %41, %.preheader ]
  %62 = phi ptr [ %67, %65 ], [ %42, %.preheader ]
  %63 = add i32 %.in, 1
  %64 = icmp eq i32 %63, 64
  br i1 %64, label %65, label %.loopexit

65:                                               ; preds = %61
  %66 = getelementptr inbounds i8, ptr %62, i64 8
  %67 = load ptr, ptr %66, align 8
  %68 = getelementptr inbounds i8, ptr %62, i64 1
  %69 = load i8, ptr %68, align 1
  %70 = zext i8 %69 to i32
  %71 = getelementptr inbounds i8, ptr %62, i64 2
  store i8 0, ptr %71, align 2
  %72 = getelementptr inbounds i8, ptr %62, i64 3
  store i8 0, ptr %72, align 1
  %73 = getelementptr inbounds i8, ptr %62, i64 16
  store ptr inttoptr (i64 1 to ptr), ptr %73, align 8
  %74 = getelementptr inbounds i8, ptr %62, i64 24
  tail call void @call_rcu(ptr noundef %74, ptr noundef nonnull @radix_tree_node_rcu_free) #8
  %75 = icmp eq ptr %62, %39
  br i1 %75, label %.loopexit9, label %61, !llvm.loop !26

.loopexit:                                        ; preds = %61, %55
  %.ph = phi i32 [ 0, %55 ], [ %63, %61 ]
  %.ph7 = phi ptr [ %57, %55 ], [ %62, %61 ]
  br label %40, !llvm.loop !25

.loopexit9:                                       ; preds = %65, %31
  tail call void @_raw_spin_unlock_irqrestore(ptr noundef %0, i64 noundef %2) #8
  ret void
}